; Function Attrs: mustprogress uwtable
define hidden void @_ZN3sls5bvect6set_bwEj(ptr noundef nonnull align 8 dereferenceable(20) initializes((8, 20)) %0, i32 noundef %1) local_unnamed_addr #3 align 2 {
  %3 = getelementptr inbounds nuw i8, ptr %0, i64 8
  store i32 %1, ptr %3, align 8, !tbaa !3
  %4 = zext i32 %1 to i64
  %5 = add nuw nsw i64 %4, 31
  %6 = lshr i64 %5, 5
  %7 = trunc nuw nsw i64 %6 to i32
  %8 = getelementptr inbounds nuw i8, ptr %0, i64 12
  store i32 %7, ptr %8, align 4, !tbaa !12
  %9 = and i32 %1, 31
  %notmask = shl nsw i32 -1, %9
  %10 = xor i32 %notmask, -1
  %11 = icmp eq i32 %9, 0
  %spec.select = select i1 %11, i32 -1, i32 %10
  %12 = getelementptr inbounds nuw i8, ptr %0, i64 16
  store i32 %spec.select, ptr %12, align 8, !tbaa !13
  %13 = add nuw nsw i32 %7, 1
  %14 = load ptr, ptr %0, align 8, !tbaa !14
  %15 = icmp eq ptr %14, null
  br i1 %15, label %_ZNK6vectorIjLb0EjE4sizeEv.exit.i.i.preheader, label %_ZNK6vectorIjLb0EjE4sizeEv.exit.thread.i

_ZNK6vectorIjLb0EjE4sizeEv.exit.thread.i:         ; preds = %2
  %16 = getelementptr inbounds i8, ptr %14, i64 -4
  %17 = load i32, ptr %16, align 4, !tbaa !15
  %.not = icmp ugt i32 %17, %7
  br i1 %.not, label %_ZN6vectorIjLb0EjE7reserveEj.exit, label %_ZNK6vectorIjLb0EjE4sizeEv.exit.i.i.preheader

_ZNK6vectorIjLb0EjE4sizeEv.exit.i.i.preheader:    ; preds = %2, %_ZNK6vectorIjLb0EjE4sizeEv.exit.thread.i
  %.ph = phi ptr [ %14, %_ZNK6vectorIjLb0EjE4sizeEv.exit.thread.i ], [ null, %2 ]
  %.0.i16.i.i.ph = phi i32 [ %17, %_ZNK6vectorIjLb0EjE4sizeEv.exit.thread.i ], [ 0, %2 ]
  br label %_ZNK6vectorIjLb0EjE4sizeEv.exit.i.i

_ZNK6vectorIjLb0EjE4sizeEv.exit.i.i:              ; preds = %_ZNK6vectorIjLb0EjE4sizeEv.exit.i.i.preheader, %_ZNK6vectorIjLb0EjE8capacityEv.exit.thread.i.i
  %18 = phi ptr [ %.pr.pre.i.i, %_ZNK6vectorIjLb0EjE8capacityEv.exit.thread.i.i ], [ %.ph, %_ZNK6vectorIjLb0EjE4sizeEv.exit.i.i.preheader ]
  %19 = icmp eq ptr %18, null
  br i1 %19, label %_ZNK6vectorIjLb0EjE8capacityEv.exit.thread.i.i, label %_ZNK6vectorIjLb0EjE8capacityEv.exit.i.i

_ZNK6vectorIjLb0EjE8capacityEv.exit.i.i:          ; preds = %_ZNK6vectorIjLb0EjE4sizeEv.exit.i.i
  %20 = getelementptr inbounds i8, ptr %18, i64 -8
  %21 = load i32, ptr %20, align 4, !tbaa !15
  %.not3 = icmp ugt i32 %21, %7
  br i1 %.not3, label %22, label %_ZNK6vectorIjLb0EjE8capacityEv.exit.thread.i.i

_ZNK6vectorIjLb0EjE8capacityEv.exit.thread.i.i:   ; preds = %_ZNK6vectorIjLb0EjE8capacityEv.exit.i.i, %_ZNK6vectorIjLb0EjE4sizeEv.exit.i.i
  tail call void @_ZN6vectorIjLb0EjE13expand_vectorEv(ptr noundef nonnull align 8 dereferenceable(8) %0)
  %.pr.pre.i.i = load ptr, ptr %0, align 8, !tbaa !14
  br label %_ZNK6vectorIjLb0EjE4sizeEv.exit.i.i, !llvm.loop !16

22:                                               ; preds = %_ZNK6vectorIjLb0EjE8capacityEv.exit.i.i
  %23 = getelementptr inbounds i8, ptr %18, i64 -4
  store i32 %13, ptr %23, align 4, !tbaa !15
  %.not1218.i.i = icmp eq i32 %.0.i16.i.i.ph, %13
  br i1 %.not1218.i.i, label %_ZN6vectorIjLb0EjE7reserveEj.exit, label %.lr.ph.preheader.i.i

.lr.ph.preheader.i.i:                             ; preds = %22
  %24 = zext nneg i32 %13 to i64
  %25 = zext i32 %.0.i16.i.i.ph to i64
  %26 = getelementptr i32, ptr %18, i64 %25
  %27 = sub nsw i64 %24, %25
  %28 = shl nsw i64 %27, 2
  tail call void @llvm.memset.p0.i64(ptr align 4 %26, i8 0, i64 %28, i1 false), !tbaa !15
  br label %_ZN6vectorIjLb0EjE7reserveEj.exit

_ZN6vectorIjLb0EjE7reserveEj.exit:                ; preds = %_ZNK6vectorIjLb0EjE4sizeEv.exit.thread.i, %22, %.lr.ph.preheader.i.i
  ret void
}